target datalayout = "e-m:e-p270:32:32-p271:32:32-p272:64:64-i64:64-i128:128-f80:128-n8:16:32:64-S128"
target triple = "x86_64-pc-linux-gnu"

%struct.native_int_table_t = type { ptr, i64 }
%struct.H5T_t = type { %struct.H5O_shared_t, ptr, %struct.H5O_loc_t, %struct.H5G_name_t, ptr }
%struct.H5O_shared_t = type { i32, ptr, i32, %union.anon.3 }
%union.anon.3 = type { %struct.H5O_mesg_loc_t }
%struct.H5O_mesg_loc_t = type { i32, i64 }
%struct.H5O_loc_t = type { ptr, i64, i8 }
%struct.H5G_name_t = type { ptr, ptr, i32 }
%struct.H5T_shared_t = type { i64, i32, i32, i64, i32, i8, ptr, ptr, %union.anon.4 }
%union.anon.4 = type { %struct.H5T_array_t }
%struct.H5T_array_t = type { i64, i32, [32 x i64] }
%struct.H5T_atomic_t = type { i32, i64, i64, i32, i32, %union.anon }
%union.anon = type { %struct.anon.0 }
%struct.anon.0 = type { i64, i64, i64, i64, i64, i64, i32, i32 }
%struct.native_int_t = type { ptr, i64, ptr, i64, %struct.H5T_atomic_t }

@H5T_POINTER_ALIGN_g = external global i64, align 8
@H5T_HVL_ALIGN_g = external global i64, align 8
@H5T_HOBJREF_ALIGN_g = external global i64, align 8
@H5T_HDSETREGREF_ALIGN_g = external global i64, align 8
@H5T_REF_ALIGN_g = external global i64, align 8
@get_host_byte_order.endian_exemplar = internal constant { [8 x i8] } { [8 x i8] c"\01\00\00\00\00\00\00\00" }, align 8

; Function Attrs: nounwind uwtable
define internal i32 @get_host_byte_order() #0 {
  %1 = load i64, ptr @get_host_byte_order.endian_exemplar, align 8, !tbaa !34
  %2 = icmp eq i64 %1, 1
  %3 = select i1 %2, i32 0, i32 1
  ret i32 %3
}

; Function Attrs: nounwind uwtable
define i32 @H5T__init_native_internal() #0 {
  %1 = alloca i32, align 4
  %2 = alloca i64, align 8
  %3 = alloca i64, align 8
  %4 = alloca i32, align 4
  %5 = alloca ptr, align 8
  %6 = alloca i64, align 8
  %7 = alloca ptr, align 8
  %8 = alloca i32, align 4
  call void @llvm.lifetime.start.p0(i64 8, ptr %2) #8
  call void @llvm.lifetime.start.p0(i64 8, ptr %3) #8
  call void @llvm.lifetime.start.p0(i64 4, ptr %4) #8
  %9 = call i32 @get_host_byte_order()
  store i32 %9, ptr %4, align 4, !tbaa !7
  store i64 0, ptr %2, align 8, !tbaa !3
  br label %10

10:                                               ; preds = %92, %0
  %11 = load i64, ptr %2, align 8, !tbaa !3
  %12 = icmp ult i64 %11, 3
  br i1 %12, label %13, label %95

13:                                               ; preds = %10
  call void @llvm.lifetime.start.p0(i64 8, ptr %5) #8
  %14 = load i64, ptr %2, align 8, !tbaa !3
  %15 = getelementptr inbounds nuw [3 x %struct.native_int_table_t], ptr @H5T__init_native_internal.table_table, i64 0, i64 %14
  %16 = getelementptr inbounds nuw %struct.native_int_table_t, ptr %15, i32 0, i32 0
  %17 = load ptr, ptr %16, align 16, !tbaa !48
  store ptr %17, ptr %5, align 8, !tbaa !24
  call void @llvm.lifetime.start.p0(i64 8, ptr %6) #8
  %18 = load i64, ptr %2, align 8, !tbaa !3
  %19 = getelementptr inbounds nuw [3 x %struct.native_int_table_t], ptr @H5T__init_native_internal.table_table, i64 0, i64 %18
  %20 = getelementptr inbounds nuw %struct.native_int_table_t, ptr %19, i32 0, i32 1
  %21 = load i64, ptr %20, align 8, !tbaa !50
  store i64 %21, ptr %6, align 8, !tbaa !3
  store i64 0, ptr %3, align 8, !tbaa !3
  br label %22

22:                                               ; preds = %85, %13
  %23 = load i64, ptr %3, align 8, !tbaa !3
  %24 = load i64, ptr %6, align 8, !tbaa !3
  %25 = icmp ult i64 %23, %24
  br i1 %25, label %26, label %88

26:                                               ; preds = %22
  call void @llvm.lifetime.start.p0(i64 8, ptr %7) #8
  %27 = call ptr @H5T__alloc()
  store ptr %27, ptr %7, align 8, !tbaa !9
  %28 = icmp eq ptr null, %27
  br i1 %28, label %29, label %30

29:                                               ; preds = %26
  store i32 -1, ptr %1, align 4
  store i32 1, ptr %8, align 4
  br label %82

30:                                               ; preds = %26
  %31 = load ptr, ptr %7, align 8, !tbaa !9
  %32 = getelementptr inbounds nuw %struct.H5T_t, ptr %31, i32 0, i32 1
  %33 = load ptr, ptr %32, align 8, !tbaa !25
  %34 = getelementptr inbounds nuw %struct.H5T_shared_t, ptr %33, i32 0, i32 1
  store i32 2, ptr %34, align 8, !tbaa !51
  %35 = load ptr, ptr %7, align 8, !tbaa !9
  %36 = getelementptr inbounds nuw %struct.H5T_t, ptr %35, i32 0, i32 1
  %37 = load ptr, ptr %36, align 8, !tbaa !25
  %38 = getelementptr inbounds nuw %struct.H5T_shared_t, ptr %37, i32 0, i32 2
  store i32 0, ptr %38, align 4, !tbaa !35
  %39 = load ptr, ptr %5, align 8, !tbaa !24
  %40 = load i64, ptr %3, align 8, !tbaa !3
  %41 = getelementptr inbounds nuw %struct.native_int_t, ptr %39, i64 %40
  %42 = getelementptr inbounds nuw %struct.native_int_t, ptr %41, i32 0, i32 3
  %43 = load i64, ptr %42, align 8, !tbaa !52
  %44 = load ptr, ptr %7, align 8, !tbaa !9
  %45 = getelementptr inbounds nuw %struct.H5T_t, ptr %44, i32 0, i32 1
  %46 = load ptr, ptr %45, align 8, !tbaa !25
  %47 = getelementptr inbounds nuw %struct.H5T_shared_t, ptr %46, i32 0, i32 3
  store i64 %43, ptr %47, align 8, !tbaa !45
  %48 = load ptr, ptr %7, align 8, !tbaa !9
  %49 = getelementptr inbounds nuw %struct.H5T_t, ptr %48, i32 0, i32 1
  %50 = load ptr, ptr %49, align 8, !tbaa !25
  %51 = getelementptr inbounds nuw %struct.H5T_shared_t, ptr %50, i32 0, i32 8
  %52 = load ptr, ptr %5, align 8, !tbaa !24
  %53 = load i64, ptr %3, align 8, !tbaa !3
  %54 = getelementptr inbounds nuw %struct.native_int_t, ptr %52, i64 %53
  %55 = getelementptr inbounds nuw %struct.native_int_t, ptr %54, i32 0, i32 4
  call void @llvm.memcpy.p0.p0.i64(ptr align 8 %51, ptr align 8 %55, i64 88, i1 false), !tbaa.struct !55
  %56 = load i32, ptr %4, align 4, !tbaa !7
  %57 = load ptr, ptr %7, align 8, !tbaa !9
  %58 = getelementptr inbounds nuw %struct.H5T_t, ptr %57, i32 0, i32 1
  %59 = load ptr, ptr %58, align 8, !tbaa !25
  %60 = getelementptr inbounds nuw %struct.H5T_shared_t, ptr %59, i32 0, i32 8
  %61 = getelementptr inbounds nuw %struct.H5T_atomic_t, ptr %60, i32 0, i32 0
  store i32 %56, ptr %61, align 8, !tbaa !34
  %62 = load ptr, ptr %5, align 8, !tbaa !24
  %63 = load i64, ptr %3, align 8, !tbaa !3
  %64 = getelementptr inbounds nuw %struct.native_int_t, ptr %62, i64 %63
  %65 = getelementptr inbounds nuw %struct.native_int_t, ptr %64, i32 0, i32 1
  %66 = load i64, ptr %65, align 8, !tbaa !56
  %67 = load ptr, ptr %5, align 8, !tbaa !24
  %68 = load i64, ptr %3, align 8, !tbaa !3
  %69 = getelementptr inbounds nuw %struct.native_int_t, ptr %67, i64 %68
  %70 = getelementptr inbounds nuw %struct.native_int_t, ptr %69, i32 0, i32 0
  %71 = load ptr, ptr %70, align 8, !tbaa !57
  store i64 %66, ptr %71, align 8, !tbaa !3
  %72 = load ptr, ptr %7, align 8, !tbaa !9
  %73 = call i64 @H5I_register(i32 noundef 3, ptr noundef %72, i1 noundef zeroext false)
  %74 = load ptr, ptr %5, align 8, !tbaa !24
  %75 = load i64, ptr %3, align 8, !tbaa !3
  %76 = getelementptr inbounds nuw %struct.native_int_t, ptr %74, i64 %75
  %77 = getelementptr inbounds nuw %struct.native_int_t, ptr %76, i32 0, i32 2
  %78 = load ptr, ptr %77, align 8, !tbaa !58
  store i64 %73, ptr %78, align 8, !tbaa !3
  %79 = icmp slt i64 %73, 0
  br i1 %79, label %80, label %81

80:                                               ; preds = %30
  store i32 -1, ptr %1, align 4
  store i32 1, ptr %8, align 4
  br label %82

81:                                               ; preds = %30
  store i32 0, ptr %8, align 4
  br label %82

82:                                               ; preds = %81, %80, %29
  call void @llvm.lifetime.end.p0(i64 8, ptr %7) #8
  %83 = load i32, ptr %8, align 4
  switch i32 %83, label %89 [
    i32 0, label %84
  ]

84:                                               ; preds = %82
  br label %85

85:                                               ; preds = %84
  %86 = load i64, ptr %3, align 8, !tbaa !3
  %87 = add i64 %86, 1
  store i64 %87, ptr %3, align 8, !tbaa !3
  br label %22, !llvm.loop !59

88:                                               ; preds = %22
  store i32 0, ptr %8, align 4
  br label %89

89:                                               ; preds = %88, %82
  call void @llvm.lifetime.end.p0(i64 8, ptr %6) #8
  call void @llvm.lifetime.end.p0(i64 8, ptr %5) #8
  %90 = load i32, ptr %8, align 4
  switch i32 %90, label %96 [
    i32 0, label %91
  ]

91:                                               ; preds = %89
  br label %92

92:                                               ; preds = %91
  %93 = load i64, ptr %2, align 8, !tbaa !3
  %94 = add i64 %93, 1
  store i64 %94, ptr %2, align 8, !tbaa !3
  br label %10, !llvm.loop !60

95:                                               ; preds = %10
  store i64 8, ptr @H5T_POINTER_ALIGN_g, align 8, !tbaa !3
  store i64 8, ptr @H5T_HVL_ALIGN_g, align 8, !tbaa !3
  store i64 8, ptr @H5T_HOBJREF_ALIGN_g, align 8, !tbaa !3
  store i64 1, ptr @H5T_HDSETREGREF_ALIGN_g, align 8, !tbaa !3
  store i64 8, ptr @H5T_REF_ALIGN_g, align 8, !tbaa !3
  store i32 0, ptr %1, align 4
  store i32 1, ptr %8, align 4
  br label %96

96:                                               ; preds = %95, %89
  call void @llvm.lifetime.end.p0(i64 4, ptr %4) #8
  call void @llvm.lifetime.end.p0(i64 8, ptr %3) #8
  call void @llvm.lifetime.end.p0(i64 8, ptr %2) #8
  %97 = load i32, ptr %1, align 4
  ret i32 %97
}