; Function Attrs: nounwind uwtable
define range(i32 -1, 1) i32 @H5T__init_native_internal() local_unnamed_addr #0 {
  br label %1

1:                                                ; preds = %0, %.critedge32
  %.02934 = phi i64 [ 0, %0 ], [ %29, %.critedge32 ]
  %2 = getelementptr inbounds nuw [3 x %struct.native_int_table_t], ptr @H5T__init_native_internal.table_table, i64 0, i64 %.02934
  %3 = load ptr, ptr %2, align 16, !tbaa !41
  br label %6

4:                                                ; preds = %9
  %5 = add nuw nsw i64 %.03033, 1
  %exitcond.not = icmp eq i64 %5, 12
  br i1 %exitcond.not, label %.critedge32, label %6, !llvm.loop !43

6:                                                ; preds = %1, %4
  %.03033 = phi i64 [ 0, %1 ], [ %5, %4 ]
  %7 = tail call ptr @H5T__alloc() #9
  %8 = icmp eq ptr %7, null
  br i1 %8, label %.critedge, label %9

9:                                                ; preds = %6
  %10 = getelementptr inbounds nuw i8, ptr %7, i64 40
  %11 = load ptr, ptr %10, align 8, !tbaa !14
  %12 = getelementptr inbounds nuw i8, ptr %11, i64 8
  store i32 2, ptr %12, align 8, !tbaa !44
  %13 = getelementptr inbounds nuw i8, ptr %11, i64 12
  store i32 0, ptr %13, align 4, !tbaa !26
  %14 = getelementptr inbounds nuw %struct.native_int_t, ptr %3, i64 %.03033
  %15 = getelementptr inbounds nuw i8, ptr %14, i64 24
  %16 = load i64, ptr %15, align 8, !tbaa !45
  %17 = getelementptr inbounds nuw i8, ptr %11, i64 16
  store i64 %16, ptr %17, align 8, !tbaa !38
  %18 = getelementptr inbounds nuw i8, ptr %11, i64 48
  %19 = getelementptr inbounds nuw i8, ptr %14, i64 32
  tail call void @llvm.memcpy.p0.p0.i64(ptr noundef nonnull align 8 dereferenceable(88) %18, ptr noundef nonnull align 8 dereferenceable(88) %19, i64 88, i1 false), !tbaa.struct !49
  %20 = load ptr, ptr %10, align 8, !tbaa !14
  %21 = getelementptr inbounds nuw i8, ptr %20, i64 48
  store i32 0, ptr %21, align 8, !tbaa !25
  %22 = getelementptr inbounds nuw i8, ptr %14, i64 8
  %23 = load i64, ptr %22, align 8, !tbaa !51
  %24 = load ptr, ptr %14, align 8, !tbaa !52
  store i64 %23, ptr %24, align 8, !tbaa !3
  %25 = tail call i64 @H5I_register(i32 noundef 3, ptr noundef nonnull %7, i1 noundef zeroext false) #9
  %26 = getelementptr inbounds nuw i8, ptr %14, i64 16
  %27 = load ptr, ptr %26, align 8, !tbaa !53
  store i64 %25, ptr %27, align 8, !tbaa !3
  %28 = icmp sgt i64 %25, -1
  br i1 %28, label %4, label %.critedge

.critedge32:                                      ; preds = %4
  %29 = add nuw nsw i64 %.02934, 1
  %exitcond35.not = icmp eq i64 %29, 3
  br i1 %exitcond35.not, label %30, label %1, !llvm.loop !54

30:                                               ; preds = %.critedge32
  store i64 8, ptr @H5T_POINTER_ALIGN_g, align 8, !tbaa !3
  store i64 8, ptr @H5T_HVL_ALIGN_g, align 8, !tbaa !3
  store i64 8, ptr @H5T_HOBJREF_ALIGN_g, align 8, !tbaa !3
  store i64 1, ptr @H5T_HDSETREGREF_ALIGN_g, align 8, !tbaa !3
  store i64 8, ptr @H5T_REF_ALIGN_g, align 8, !tbaa !3
  br label %.critedge

.critedge:                                        ; preds = %9, %6, %30
  %.4 = phi i32 [ 0, %30 ], [ -1, %6 ], [ -1, %9 ]
  ret i32 %.4
}